target datalayout = "e-m:e-p270:32:32-p271:32:32-p272:64:64-i64:64-i128:128-f80:128-n8:16:32:64-S128"
target triple = "x86_64-pc-linux-gnu"

%struct.RLTable = type { i32, i32, ptr, ptr, ptr, [2 x ptr], [2 x ptr], [2 x ptr], [32 x ptr] }
%struct.VLCElem = type { %union.anon.2 }
%union.anon.2 = type { %struct.anon }
%struct.anon = type { i16, i16 }
%struct.VLCInitState = type { ptr, i32 }

@ff_rl_table = external hidden global [6 x %struct.RLTable], align 16
@mv_tables = internal global [2 x ptr] zeroinitializer, align 16
@ff_mb_non_intra_vlc = global [4 x ptr] zeroinitializer, align 16
@ff_inter_intra_vlc = global [8 x %struct.VLCElem] zeroinitializer, align 16
@v2_mb_type_vlc = internal global [128 x %struct.VLCElem] zeroinitializer, align 16
@v2_intra_cbpc_vlc = internal global [8 x %struct.VLCElem] zeroinitializer, align 16
@__const.msmpeg4_decode_init_static.state = private unnamed_addr constant { ptr, i32, [4 x i8] } { ptr @msmpeg4_decode_init_static.vlc_buf, i32 14712, [4 x i8] zeroinitializer }, align 8
@msmpeg4_decode_init_static.rl_vlc_table = internal global [642 x %struct.VLCElem] zeroinitializer, align 16
@msmpeg4_decode_init_static.rl_vlc_table.26 = internal global [1104 x %struct.VLCElem] zeroinitializer, align 16
@msmpeg4_decode_init_static.rl_vlc_table.27 = internal global [554 x %struct.VLCElem] zeroinitializer, align 16
@msmpeg4_decode_init_static.rl_vlc_table.28 = internal global [32 x [940 x %struct.VLCElem]] zeroinitializer, align 16
@msmpeg4_decode_init_static.rl_vlc_table.29 = internal global [32 x [962 x %struct.VLCElem]] zeroinitializer, align 16
@ff_h263_rl_inter = external global %struct.RLTable, align 8
@v2_dc_lum_vlc = internal global [1472 x %struct.VLCElem] zeroinitializer, align 16
@ff_v2_dc_lum_table = external hidden global [512 x [2 x i32]], align 16
@v2_dc_chroma_vlc = internal global [1506 x %struct.VLCElem] zeroinitializer, align 16
@ff_v2_dc_chroma_table = external hidden global [512 x [2 x i32]], align 16
@ff_v2_intra_cbpc = external hidden constant [4 x [2 x i8]], align 1
@ff_v2_mb_type = external hidden constant [8 x [2 x i8]], align 16
@ff_msmp4_mv_table0_lens = external hidden constant [1100 x i8], align 16
@ff_msmp4_mv_table0 = external hidden constant [1100 x i16], align 16
@ff_msmp4_mv_table1_lens = external hidden constant [1100 x i8], align 16
@ff_msmp4_mv_table1 = external hidden constant [1100 x i16], align 16
@ff_wmv2_inter_table = external hidden constant [4 x ptr], align 16
@ff_table_inter_intra = external hidden constant [4 x [2 x i8]], align 1

; Function Attrs: cold nounwind optsize uwtable
define internal void @msmpeg4_decode_init_static() #0 {
  %1 = alloca %struct.VLCInitState, align 8
  %2 = alloca i32, align 4
  %3 = alloca i32, align 4
  %4 = alloca i32, align 4
  call void @llvm.lifetime.start.p0(i64 16, ptr %1) #8
  call void @llvm.memcpy.p0.p0.i64(ptr align 8 %1, ptr align 8 @__const.msmpeg4_decode_init_static.state, i64 16, i1 false)
  br label %5

5:                                                ; preds = %0
  store ptr @msmpeg4_decode_init_static.rl_vlc_table, ptr getelementptr inbounds nuw (%struct.RLTable, ptr @ff_rl_table, i32 0, i32 8), align 16, !tbaa !82
  call void @ff_rl_init_vlc(ptr noundef @ff_rl_table, i32 noundef 642)
  br label %6

6:                                                ; preds = %5
  br label %7

7:                                                ; preds = %6
  br label %8

8:                                                ; preds = %7
  store ptr @msmpeg4_decode_init_static.rl_vlc_table.26, ptr getelementptr inbounds nuw (%struct.RLTable, ptr getelementptr inbounds ([6 x %struct.RLTable], ptr @ff_rl_table, i64 0, i64 1), i32 0, i32 8), align 16, !tbaa !82
  call void @ff_rl_init_vlc(ptr noundef getelementptr inbounds ([6 x %struct.RLTable], ptr @ff_rl_table, i64 0, i64 1), i32 noundef 1104)
  br label %9

9:                                                ; preds = %8
  br label %10

10:                                               ; preds = %9
  br label %11

11:                                               ; preds = %10
  store ptr @msmpeg4_decode_init_static.rl_vlc_table.27, ptr getelementptr inbounds nuw (%struct.RLTable, ptr getelementptr inbounds ([6 x %struct.RLTable], ptr @ff_rl_table, i64 0, i64 2), i32 0, i32 8), align 16, !tbaa !82
  call void @ff_rl_init_vlc(ptr noundef getelementptr inbounds ([6 x %struct.RLTable], ptr @ff_rl_table, i64 0, i64 2), i32 noundef 554)
  br label %12

12:                                               ; preds = %11
  br label %13

13:                                               ; preds = %12
  call void @llvm.lifetime.start.p0(i64 4, ptr %2) #8
  store i32 0, ptr %2, align 4, !tbaa !33
  br label %14

14:                                               ; preds = %26, %13
  %15 = load i32, ptr %2, align 4, !tbaa !33
  %16 = icmp slt i32 %15, 32
  br i1 %16, label %18, label %17

17:                                               ; preds = %14
  call void @llvm.lifetime.end.p0(i64 4, ptr %2) #8
  br label %29

18:                                               ; preds = %14
  %19 = load i32, ptr %2, align 4, !tbaa !33
  %20 = sext i32 %19 to i64
  %21 = getelementptr inbounds [32 x [940 x %struct.VLCElem]], ptr @msmpeg4_decode_init_static.rl_vlc_table.28, i64 0, i64 %20
  %22 = getelementptr inbounds [940 x %struct.VLCElem], ptr %21, i64 0, i64 0
  %23 = load i32, ptr %2, align 4, !tbaa !33
  %24 = sext i32 %23 to i64
  %25 = getelementptr inbounds [32 x ptr], ptr getelementptr inbounds nuw (%struct.RLTable, ptr getelementptr inbounds ([6 x %struct.RLTable], ptr @ff_rl_table, i64 0, i64 3), i32 0, i32 8), i64 0, i64 %24
  store ptr %22, ptr %25, align 8, !tbaa !82
  br label %26

26:                                               ; preds = %18
  %27 = load i32, ptr %2, align 4, !tbaa !33
  %28 = add nsw i32 %27, 1
  store i32 %28, ptr %2, align 4, !tbaa !33
  br label %14, !llvm.loop !93

29:                                               ; preds = %17
  call void @ff_rl_init_vlc(ptr noundef getelementptr inbounds ([6 x %struct.RLTable], ptr @ff_rl_table, i64 0, i64 3), i32 noundef 940)
  call void @llvm.lifetime.start.p0(i64 4, ptr %3) #8
  store i32 0, ptr %3, align 4, !tbaa !33
  br label %30

30:                                               ; preds = %42, %29
  %31 = load i32, ptr %3, align 4, !tbaa !33
  %32 = icmp slt i32 %31, 32
  br i1 %32, label %34, label %33

33:                                               ; preds = %30
  call void @llvm.lifetime.end.p0(i64 4, ptr %3) #8
  br label %45

34:                                               ; preds = %30
  %35 = load i32, ptr %3, align 4, !tbaa !33
  %36 = sext i32 %35 to i64
  %37 = getelementptr inbounds [32 x [962 x %struct.VLCElem]], ptr @msmpeg4_decode_init_static.rl_vlc_table.29, i64 0, i64 %36
  %38 = getelementptr inbounds [962 x %struct.VLCElem], ptr %37, i64 0, i64 0
  %39 = load i32, ptr %3, align 4, !tbaa !33
  %40 = sext i32 %39 to i64
  %41 = getelementptr inbounds [32 x ptr], ptr getelementptr inbounds nuw (%struct.RLTable, ptr getelementptr inbounds ([6 x %struct.RLTable], ptr @ff_rl_table, i64 0, i64 4), i32 0, i32 8), i64 0, i64 %40
  store ptr %38, ptr %41, align 8, !tbaa !82
  br label %42

42:                                               ; preds = %34
  %43 = load i32, ptr %3, align 4, !tbaa !33
  %44 = add nsw i32 %43, 1
  store i32 %44, ptr %3, align 4, !tbaa !33
  br label %30, !llvm.loop !94

45:                                               ; preds = %33
  call void @ff_rl_init_vlc(ptr noundef getelementptr inbounds ([6 x %struct.RLTable], ptr @ff_rl_table, i64 0, i64 4), i32 noundef 962)
  call void @llvm.memcpy.p0.p0.i64(ptr align 16 getelementptr inbounds nuw (%struct.RLTable, ptr getelementptr inbounds ([6 x %struct.RLTable], ptr @ff_rl_table, i64 0, i64 5), i32 0, i32 8), ptr align 8 getelementptr inbounds nuw (%struct.RLTable, ptr @ff_h263_rl_inter, i32 0, i32 8), i64 256, i1 false)
  call void @ff_vlc_init_table_sparse(ptr noundef @v2_dc_lum_vlc, i32 noundef 1472, i32 noundef 9, i32 noundef 512, ptr noundef getelementptr inbounds ([2 x i32], ptr @ff_v2_dc_lum_table, i64 0, i64 1), i32 noundef 8, i32 noundef 4, ptr noundef @ff_v2_dc_lum_table, i32 noundef 8, i32 noundef 4, ptr noundef null, i32 noundef 0, i32 noundef 0, i32 noundef 0)
  call void @ff_vlc_init_table_sparse(ptr noundef @v2_dc_chroma_vlc, i32 noundef 1506, i32 noundef 9, i32 noundef 512, ptr noundef getelementptr inbounds ([2 x i32], ptr @ff_v2_dc_chroma_table, i64 0, i64 1), i32 noundef 8, i32 noundef 4, ptr noundef @ff_v2_dc_chroma_table, i32 noundef 8, i32 noundef 4, ptr noundef null, i32 noundef 0, i32 noundef 0, i32 noundef 0)
  call void @ff_vlc_init_table_sparse(ptr noundef @v2_intra_cbpc_vlc, i32 noundef 8, i32 noundef 3, i32 noundef 4, ptr noundef getelementptr inbounds ([2 x i8], ptr @ff_v2_intra_cbpc, i64 0, i64 1), i32 noundef 2, i32 noundef 1, ptr noundef @ff_v2_intra_cbpc, i32 noundef 2, i32 noundef 1, ptr noundef null, i32 noundef 0, i32 noundef 0, i32 noundef 0)
  call void @ff_vlc_init_table_sparse(ptr noundef @v2_mb_type_vlc, i32 noundef 128, i32 noundef 7, i32 noundef 8, ptr noundef getelementptr inbounds ([2 x i8], ptr @ff_v2_mb_type, i64 0, i64 1), i32 noundef 2, i32 noundef 1, ptr noundef @ff_v2_mb_type, i32 noundef 2, i32 noundef 1, ptr noundef null, i32 noundef 0, i32 noundef 0, i32 noundef 0)
  %46 = call ptr @ff_vlc_init_tables_from_lengths(ptr noundef %1, i32 noundef 9, i32 noundef 1100, ptr noundef @ff_msmp4_mv_table0_lens, i32 noundef 1, ptr noundef @ff_msmp4_mv_table0, i32 noundef 2, i32 noundef 2, i32 noundef 0, i32 noundef 0)
  store ptr %46, ptr @mv_tables, align 16, !tbaa !82
  %47 = call ptr @ff_vlc_init_tables_from_lengths(ptr noundef %1, i32 noundef 9, i32 noundef 1100, ptr noundef @ff_msmp4_mv_table1_lens, i32 noundef 1, ptr noundef @ff_msmp4_mv_table1, i32 noundef 2, i32 noundef 2, i32 noundef 0, i32 noundef 0)
  store ptr %47, ptr getelementptr inbounds ([2 x ptr], ptr @mv_tables, i64 0, i64 1), align 8, !tbaa !82
  call void @llvm.lifetime.start.p0(i64 4, ptr %4) #8
  store i32 0, ptr %4, align 4, !tbaa !33
  br label %48

48:                                               ; preds = %69, %45
  %49 = load i32, ptr %4, align 4, !tbaa !33
  %50 = icmp ult i32 %49, 4
  br i1 %50, label %52, label %51

51:                                               ; preds = %48
  call void @llvm.lifetime.end.p0(i64 4, ptr %4) #8
  br label %72

52:                                               ; preds = %48
  %53 = load i32, ptr %4, align 4, !tbaa !33
  %54 = zext i32 %53 to i64
  %55 = getelementptr inbounds nuw [4 x ptr], ptr @ff_wmv2_inter_table, i64 0, i64 %54
  %56 = load ptr, ptr %55, align 8, !tbaa !66
  %57 = getelementptr inbounds [2 x i32], ptr %56, i64 0
  %58 = getelementptr inbounds [2 x i32], ptr %57, i64 0, i64 1
  %59 = load i32, ptr %4, align 4, !tbaa !33
  %60 = zext i32 %59 to i64
  %61 = getelementptr inbounds nuw [4 x ptr], ptr @ff_wmv2_inter_table, i64 0, i64 %60
  %62 = load ptr, ptr %61, align 8, !tbaa !66
  %63 = getelementptr inbounds [2 x i32], ptr %62, i64 0
  %64 = getelementptr inbounds [2 x i32], ptr %63, i64 0, i64 0
  %65 = call ptr @ff_vlc_init_tables_sparse(ptr noundef %1, i32 noundef 9, i32 noundef 128, ptr noundef %58, i32 noundef 8, i32 noundef 4, ptr noundef %64, i32 noundef 8, i32 noundef 4, ptr noundef null, i32 noundef 0, i32 noundef 0, i32 noundef 0)
  %66 = load i32, ptr %4, align 4, !tbaa !33
  %67 = zext i32 %66 to i64
  %68 = getelementptr inbounds nuw [4 x ptr], ptr @ff_mb_non_intra_vlc, i64 0, i64 %67
  store ptr %65, ptr %68, align 8, !tbaa !82
  br label %69

69:                                               ; preds = %52
  %70 = load i32, ptr %4, align 4, !tbaa !33
  %71 = add i32 %70, 1
  store i32 %71, ptr %4, align 4, !tbaa !33
  br label %48, !llvm.loop !95

72:                                               ; preds = %51
  call void @ff_vlc_init_table_sparse(ptr noundef @ff_inter_intra_vlc, i32 noundef 8, i32 noundef 3, i32 noundef 4, ptr noundef getelementptr inbounds ([2 x i8], ptr @ff_table_inter_intra, i64 0, i64 1), i32 noundef 2, i32 noundef 1, ptr noundef @ff_table_inter_intra, i32 noundef 2, i32 noundef 1, ptr noundef null, i32 noundef 0, i32 noundef 0, i32 noundef 0)
  call void @ff_msmp4_vc1_vlcs_init_once()
  call void @llvm.lifetime.end.p0(i64 16, ptr %1) #8
  ret void
}