; Function Attrs: cold nounwind optsize uwtable
define internal void @msmpeg4_decode_init_static() #0 {
  %1 = alloca %struct.VLCInitState, align 8
  call void @llvm.lifetime.start.p0(i64 16, ptr nonnull %1) #9
  call void @llvm.memcpy.p0.p0.i64(ptr noundef nonnull align 8 dereferenceable(16) %1, ptr noundef nonnull align 8 dereferenceable(16) @__const.msmpeg4_decode_init_static.state, i64 16, i1 false)
  store ptr @msmpeg4_decode_init_static.rl_vlc_table, ptr getelementptr inbounds nuw (i8, ptr @ff_rl_table, i64 80), align 16, !tbaa !78
  tail call void @ff_rl_init_vlc(ptr noundef nonnull @ff_rl_table, i32 noundef 642) #9
  store ptr @msmpeg4_decode_init_static.rl_vlc_table.26, ptr getelementptr inbounds nuw (i8, ptr @ff_rl_table, i64 416), align 16, !tbaa !78
  tail call void @ff_rl_init_vlc(ptr noundef nonnull getelementptr inbounds nuw (i8, ptr @ff_rl_table, i64 336), i32 noundef 1104) #9
  store ptr @msmpeg4_decode_init_static.rl_vlc_table.27, ptr getelementptr inbounds nuw (i8, ptr @ff_rl_table, i64 752), align 16, !tbaa !78
  tail call void @ff_rl_init_vlc(ptr noundef nonnull getelementptr inbounds nuw (i8, ptr @ff_rl_table, i64 672), i32 noundef 554) #9
  br label %3

2:                                                ; preds = %3
  tail call void @ff_rl_init_vlc(ptr noundef nonnull getelementptr inbounds nuw (i8, ptr @ff_rl_table, i64 1008), i32 noundef 940) #9
  br label %9

3:                                                ; preds = %0, %3
  %indvars.iv = phi i64 [ 0, %0 ], [ %indvars.iv.next, %3 ]
  %4 = getelementptr inbounds nuw [32 x [940 x %struct.VLCElem]], ptr @msmpeg4_decode_init_static.rl_vlc_table.28, i64 0, i64 %indvars.iv
  %5 = getelementptr inbounds nuw [32 x ptr], ptr getelementptr inbounds nuw (i8, ptr @ff_rl_table, i64 1088), i64 0, i64 %indvars.iv
  store ptr %4, ptr %5, align 8, !tbaa !78
  %indvars.iv.next = add nuw nsw i64 %indvars.iv, 1
  %exitcond.not = icmp eq i64 %indvars.iv.next, 32
  br i1 %exitcond.not, label %2, label %3, !llvm.loop !88

6:                                                ; preds = %9
  tail call void @ff_rl_init_vlc(ptr noundef nonnull getelementptr inbounds nuw (i8, ptr @ff_rl_table, i64 1344), i32 noundef 962) #9
  tail call void @llvm.memcpy.p0.p0.i64(ptr noundef nonnull align 16 dereferenceable(256) getelementptr inbounds nuw (i8, ptr @ff_rl_table, i64 1760), ptr noundef nonnull align 8 dereferenceable(256) getelementptr inbounds nuw (i8, ptr @ff_h263_rl_inter, i64 80), i64 256, i1 false)
  tail call void @ff_vlc_init_table_sparse(ptr noundef nonnull @v2_dc_lum_vlc, i32 noundef 1472, i32 noundef 9, i32 noundef 512, ptr noundef nonnull getelementptr inbounds nuw (i8, ptr @ff_v2_dc_lum_table, i64 4), i32 noundef 8, i32 noundef 4, ptr noundef nonnull @ff_v2_dc_lum_table, i32 noundef 8, i32 noundef 4, ptr noundef null, i32 noundef 0, i32 noundef 0, i32 noundef 0) #9
  tail call void @ff_vlc_init_table_sparse(ptr noundef nonnull @v2_dc_chroma_vlc, i32 noundef 1506, i32 noundef 9, i32 noundef 512, ptr noundef nonnull getelementptr inbounds nuw (i8, ptr @ff_v2_dc_chroma_table, i64 4), i32 noundef 8, i32 noundef 4, ptr noundef nonnull @ff_v2_dc_chroma_table, i32 noundef 8, i32 noundef 4, ptr noundef null, i32 noundef 0, i32 noundef 0, i32 noundef 0) #9
  tail call void @ff_vlc_init_table_sparse(ptr noundef nonnull @v2_intra_cbpc_vlc, i32 noundef 8, i32 noundef 3, i32 noundef 4, ptr noundef nonnull getelementptr inbounds nuw (i8, ptr @ff_v2_intra_cbpc, i64 1), i32 noundef 2, i32 noundef 1, ptr noundef nonnull @ff_v2_intra_cbpc, i32 noundef 2, i32 noundef 1, ptr noundef null, i32 noundef 0, i32 noundef 0, i32 noundef 0) #9
  tail call void @ff_vlc_init_table_sparse(ptr noundef nonnull @v2_mb_type_vlc, i32 noundef 128, i32 noundef 7, i32 noundef 8, ptr noundef nonnull getelementptr inbounds nuw (i8, ptr @ff_v2_mb_type, i64 1), i32 noundef 2, i32 noundef 1, ptr noundef nonnull @ff_v2_mb_type, i32 noundef 2, i32 noundef 1, ptr noundef null, i32 noundef 0, i32 noundef 0, i32 noundef 0) #9
  %7 = call ptr @ff_vlc_init_tables_from_lengths(ptr noundef nonnull %1, i32 noundef 9, i32 noundef 1100, ptr noundef nonnull @ff_msmp4_mv_table0_lens, i32 noundef 1, ptr noundef nonnull @ff_msmp4_mv_table0, i32 noundef 2, i32 noundef 2, i32 noundef 0, i32 noundef 0) #9
  store ptr %7, ptr @mv_tables, align 16, !tbaa !78
  %8 = call ptr @ff_vlc_init_tables_from_lengths(ptr noundef nonnull %1, i32 noundef 9, i32 noundef 1100, ptr noundef nonnull @ff_msmp4_mv_table1_lens, i32 noundef 1, ptr noundef nonnull @ff_msmp4_mv_table1, i32 noundef 2, i32 noundef 2, i32 noundef 0, i32 noundef 0) #9
  store ptr %8, ptr getelementptr inbounds nuw (i8, ptr @mv_tables, i64 8), align 8, !tbaa !78
  br label %13

9:                                                ; preds = %2, %9
  %indvars.iv19 = phi i64 [ 0, %2 ], [ %indvars.iv.next20, %9 ]
  %10 = getelementptr inbounds nuw [32 x [962 x %struct.VLCElem]], ptr @msmpeg4_decode_init_static.rl_vlc_table.29, i64 0, i64 %indvars.iv19
  %11 = getelementptr inbounds nuw [32 x ptr], ptr getelementptr inbounds nuw (i8, ptr @ff_rl_table, i64 1424), i64 0, i64 %indvars.iv19
  store ptr %10, ptr %11, align 8, !tbaa !78
  %indvars.iv.next20 = add nuw nsw i64 %indvars.iv19, 1
  %exitcond22.not = icmp eq i64 %indvars.iv.next20, 32
  br i1 %exitcond22.not, label %6, label %9, !llvm.loop !89

12:                                               ; preds = %13
  call void @ff_vlc_init_table_sparse(ptr noundef nonnull @ff_inter_intra_vlc, i32 noundef 8, i32 noundef 3, i32 noundef 4, ptr noundef nonnull getelementptr inbounds nuw (i8, ptr @ff_table_inter_intra, i64 1), i32 noundef 2, i32 noundef 1, ptr noundef nonnull @ff_table_inter_intra, i32 noundef 2, i32 noundef 1, ptr noundef null, i32 noundef 0, i32 noundef 0, i32 noundef 0) #9
  call void @ff_msmp4_vc1_vlcs_init_once() #9
  call void @llvm.lifetime.end.p0(i64 16, ptr nonnull %1) #9
  ret void

13:                                               ; preds = %6, %13
  %indvars.iv23 = phi i64 [ 0, %6 ], [ %indvars.iv.next24, %13 ]
  %14 = getelementptr inbounds nuw [4 x ptr], ptr @ff_wmv2_inter_table, i64 0, i64 %indvars.iv23
  %15 = load ptr, ptr %14, align 8, !tbaa !90
  %16 = getelementptr inbounds nuw i8, ptr %15, i64 4
  %17 = call ptr @ff_vlc_init_tables_sparse(ptr noundef nonnull %1, i32 noundef 9, i32 noundef 128, ptr noundef nonnull %16, i32 noundef 8, i32 noundef 4, ptr noundef %15, i32 noundef 8, i32 noundef 4, ptr noundef null, i32 noundef 0, i32 noundef 0, i32 noundef 0) #9
  %18 = getelementptr inbounds nuw [4 x ptr], ptr @ff_mb_non_intra_vlc, i64 0, i64 %indvars.iv23
  store ptr %17, ptr %18, align 8, !tbaa !78
  %indvars.iv.next24 = add nuw nsw i64 %indvars.iv23, 1
  %exitcond26.not = icmp eq i64 %indvars.iv.next24, 4
  br i1 %exitcond26.not, label %12, label %13, !llvm.loop !91
}